Certificate:
    Data:
        Version: 3 (0x2)
        Serial Number: 2 (0x2)
    Signature Algorithm: sha256WithRSAEncryption
        Issuer: C=SE, O=Example, OU=Example Certificate Authority, CN=Example Root CA
        Validity
            Not Before: Dec 12 12:17:40 2024 GMT
            Not After : Dec 10 12:17:40 2034 GMT
        Subject: C=SE, O=Example, OU=Example Certificate Authority, CN=Example Cluster Authority
        Subject Public Key Info:
            Public Key Algorithm: rsaEncryption
                RSA Public-Key: (2048 bit)
                Modulus:
                    00:bd:ec:b4:8e:cd:de:5c:6f:27:a2:0e:82:3b:83:
                    c6:74:66:41:17:a2:5b:63:44:1a:ff:63:e0:7d:d3:
                    5c:79:d5:95:22:46:e3:ac:6f:c3:2b:26:1a:47:a0:
                    61:ad:34:7b:4f:21:c0:ec:76:b7:e8:37:e7:aa:03:
                    2e:bb:70:b5:82:96:d7:55:0b:5b:32:6f:a2:34:46:
                    bc:d1:19:67:7b:60:89:7e:3a:7a:a8:e3:cf:f0:46:
                    f6:b1:76:43:c0:e0:17:95:30:cf:b8:79:51:f8:71:
                    5f:7e:c6:3b:b3:6a:47:9f:49:9b:27:d3:bd:8c:9a:
                    d1:91:a2:c9:20:72:71:03:c4:1d:e3:dc:79:d1:c0:
                    1c:b3:dc:0b:31:08:12:eb:d6:ab:09:aa:99:a9:c2:
                    cf:f4:be:24:cd:7b:61:f3:9a:6e:2c:fb:37:fe:00:
                    e3:5a:3d:1a:99:94:36:2a:68:52:06:bb:c3:40:69:
                    6a:27:e8:9a:0c:c4:27:65:05:9d:f6:14:e7:8c:a1:
                    5f:4c:6a:05:81:d4:fd:24:24:e1:3a:fe:d7:c9:d2:
                    5d:d7:f3:c6:f4:42:49:68:3c:3c:b5:25:3d:69:62:
                    07:03:ff:00:01:e4:a2:cb:bb:ff:64:41:22:43:23:
                    8e:bd:be:c9:66:b5:86:a1:5c:e4:62:22:c4:1b:6c:
                    83:cb
                Exponent: 65537 (0x10001)
        X509v3 extensions:
            X509v3 Key Usage: critical
                Certificate Sign, CRL Sign
            X509v3 Basic Constraints: critical
                CA:TRUE, pathlen:0
            X509v3 Subject Key Identifier: 
                BD:98:C2:19:20:46:2C:E4:FE:EB:5F:7D:43:39:E3:EB:C7:72:75:D8
            X509v3 Authority Key Identifier: 
                keyid:76:06:0A:36:A0:A3:FB:A2:7A:EE:B6:6A:D4:2C:AB:E9:4C:B4:10:0E

            Authority Information Access: 
                CA Issuers - URI:http://example.com/ca/root.cer

            X509v3 CRL Distribution Points: 

                Full Name:
                  URI:http://example.com/ca/root.crl

    Signature Algorithm: sha256WithRSAEncryption
         02:62:9e:d4:b3:16:75:3e:af:6c:b7:2b:b0:46:75:b6:57:90:
         92:a8:ca:b9:93:2e:f8:af:23:3d:f2:01:d6:cd:00:9d:f4:80:
         1b:bb:84:dc:74:3f:95:cc:06:38:8e:7a:09:fd:8e:93:53:6c:
         bc:02:59:b3:e1:b2:3c:5c:06:83:57:40:12:db:7e:ac:99:bc:
         d8:05:3a:6a:0c:c3:82:4a:b1:d9:f7:4f:88:ea:68:17:c2:89:
         fd:5f:2b:4b:12:eb:ce:82:e2:ee:c7:46:6e:8e:ae:82:5f:8f:
         ef:c1:72:e6:14:42:7b:82:24:be:53:86:a3:36:0a:d7:73:fb:
         a1:4a:61:a4:8d:e8:cd:52:2c:52:07:26:af:a3:b9:4b:aa:15:
         3f:8c:9a:80:bd:03:8c:e1:c8:ff:a1:d8:9f:46:69:41:b3:86:
         af:e3:ea:e5:ce:62:91:31:d5:a5:96:95:0c:18:b2:58:1b:f3:
         16:fd:25:c4:e8:c8:db:2a:6c:b1:b5:c8:b1:74:57:f7:82:57:
         17:18:3d:e9:62:a6:34:05:e1:6e:99:bf:8d:0b:86:21:fb:ee:
         c6:1c:04:ec:61:82:13:5d:81:96:71:2c:9f:f4:0f:3d:cb:61:
         14:89:29:a6:b5:41:5a:fa:60:14:69:dd:dd:46:b8:52:90:d0:
         d2:e5:e3:7e
-----BEGIN CERTIFICATE-----
MIIEHDCCAwSgAwIBAgIBAjANBgkqhkiG9w0BAQsFADBhMQswCQYDVQQGEwJTRTEQ
MA4GA1UECgwHRXhhbXBsZTEmMCQGA1UECwwdRXhhbXBsZSBDZXJ0aWZpY2F0ZSBB
dXRob3JpdHkxGDAWBgNVBAMMD0V4YW1wbGUgUm9vdCBDQTAeFw0yNDEyMTIxMjE3
NDBaFw0zNDEyMTAxMjE3NDBaMGsxCzAJBgNVBAYTAlNFMRAwDgYDVQQKDAdFeGFt
cGxlMSYwJAYDVQQLDB1FeGFtcGxlIENlcnRpZmljYXRlIEF1dGhvcml0eTEiMCAG
A1UEAwwZRXhhbXBsZSBDbHVzdGVyIEF1dGhvcml0eTCCASIwDQYJKoZIhvcNAQEB
BQADggEPADCCAQoCggEBAL3stI7N3lxvJ6IOgjuDxnRmQReiW2NEGv9j4H3TXHnV
lSJG46xvwysmGkegYa00e08hwOx2t+g356oDLrtwtYKW11ULWzJvojRGvNEZZ3tg
iX46eqjjz/BG9rF2Q8DgF5Uwz7h5UfhxX37GO7NqR59JmyfTvYya0ZGiySBycQPE
HePcedHAHLPcCzEIEuvWqwmqmanCz/S+JM17YfOabiz7N/4A41o9GpmUNipoUga7
w0BpaifomgzEJ2UFnfYU54yhX0xqBYHU/SQk4Tr+18nSXdfzxvRCSWg8PLUlPWli
BwP/AAHkosu7/2RBIkMjjr2+yWa1hqFc5GIixBtsg8sCAwEAAaOB1DCB0TAOBgNV
HQ8BAf8EBAMCAQYwEgYDVR0TAQH/BAgwBgEB/wIBADAdBgNVHQ4EFgQUvZjCGSBG
LOT+6199Qznj68dyddgwHwYDVR0jBBgwFoAUdgYKNqCj+6J67rZq1Cyr6Uy0EA4w
OgYIKwYBBQUHAQEELjAsMCoGCCsGAQUFBzAChh5odHRwOi8vZXhhbXBsZS5jb20v
Y2Evcm9vdC5jZXIwLwYDVR0fBCgwJjAkoCKgIIYeaHR0cDovL2V4YW1wbGUuY29t
L2NhL3Jvb3QuY3JsMA0GCSqGSIb3DQEBCwUAA4IBAQACYp7UsxZ1Pq9styuwRnW2
V5CSqMq5ky74ryM98gHWzQCd9IAbu4TcdD+VzAY4jnoJ/Y6TU2y8Almz4bI8XAaD
V0AS236smbzYBTpqDMOCSrHZ90+I6mgXwon9XytLEuvOguLux0Zujq6CX4/vwXLm
FEJ7giS+U4ajNgrXc/uhSmGkjejNUixSByavo7lLqhU/jJqAvQOM4cj/odifRmlB
s4av4+rlzmKRMdWllpUMGLJYG/MW/SXE6MjbKmyxtcixdFf3glcXGD3pYqY0BeFu
mb+NC4Yh++7GHATsYYITXYGWcSyf9A89y2EUiSmmtUFa+mAUad3dRrhSkNDS5eN+
-----END CERTIFICATE-----
