Certificate:
    Data:
        Version: 3 (0x2)
        Serial Number: 9 (0x9)
    Signature Algorithm: sha256WithRSAEncryption
        Issuer: C=SE, O=Example, OU=Example Certificate Authority, CN=Example Cluster Authority
        Validity
            Not Before: Dec 12 12:17:41 2024 GMT
            Not After : Jun  4 12:17:41 2030 GMT
        Subject: C=SE, O=Example, OU=Example Cluster, CN=Server 8
        Subject Public Key Info:
            Public Key Algorithm: rsaEncryption
                RSA Public-Key: (2048 bit)
                Modulus:
                    00:c2:b6:2d:b6:01:25:a9:e8:3d:4c:b7:1a:3a:80:
                    bb:da:97:48:2b:6c:4f:b8:d4:bf:71:6d:c8:2d:67:
                    4d:52:fe:bb:0f:27:b7:2b:b2:1a:68:03:38:ba:82:
                    20:b7:f2:f1:56:d2:d1:d1:3c:06:27:51:6b:8e:f2:
                    08:f5:a1:1e:61:45:5a:10:86:dc:15:52:a8:c0:7f:
                    47:dd:45:cd:c2:1e:14:56:5b:e2:12:b1:4b:5b:5b:
                    89:17:52:41:6b:22:fc:bc:d0:16:20:6f:61:47:19:
                    14:f6:ec:9f:7d:c1:c4:25:a0:8a:4a:31:a9:0c:bc:
                    e2:c8:83:60:1e:ca:21:de:b8:33:db:25:d9:e5:43:
                    9a:9e:7b:6c:4e:52:95:da:3f:be:05:37:f7:d7:c7:
                    68:f0:50:32:f6:1a:32:0d:49:71:73:76:11:d3:4e:
                    83:80:92:4f:5b:8a:ec:13:c1:fe:34:1b:a6:4d:11:
                    86:8a:8a:b6:24:dc:42:84:ef:f1:68:2f:f6:8b:44:
                    92:b7:3b:e8:f5:4e:8c:61:bc:07:96:6f:d3:65:25:
                    54:90:45:89:76:9f:10:ce:5f:28:c3:6a:5c:96:e8:
                    7d:04:96:e2:1c:b3:4e:bb:54:94:25:47:cc:2d:69:
                    bf:49:d0:b7:80:bc:7f:62:60:e1:f0:93:a1:1f:ab:
                    16:85
                Exponent: 65537 (0x10001)
        X509v3 extensions:
            X509v3 Key Usage: critical
                Digital Signature, Key Encipherment
            X509v3 Basic Constraints: 
                CA:FALSE
            X509v3 Extended Key Usage: 
                TLS Web Server Authentication, TLS Web Client Authentication
            X509v3 Subject Key Identifier: 
                0A:CD:DD:D1:61:FC:25:DA:1E:50:20:45:74:15:FA:C0:66:19:75:41
            X509v3 Authority Key Identifier: 
                keyid:BD:98:C2:19:20:46:2C:E4:FE:EB:5F:7D:43:39:E3:EB:C7:72:75:D8

            Authority Information Access: 
                CA Issuers - URI:http://example.com/ca/cluster.cer

            X509v3 CRL Distribution Points: 

                Full Name:
                  URI:http://example.com/ca/cluster.crl

            X509v3 Subject Alternative Name: 
                DNS:localhost, IP Address:127.0.0.1
    Signature Algorithm: sha256WithRSAEncryption
         19:52:19:ce:b9:19:cd:10:bb:2e:18:48:49:79:c9:4a:fc:13:
         f8:e9:59:b7:94:10:d7:99:52:78:62:26:3f:f3:bf:3b:0c:0f:
         25:98:bb:dd:6c:42:77:4a:90:73:7a:70:39:64:bc:fc:ef:52:
         2d:93:9b:c2:7a:a2:8f:6d:45:56:0c:29:ce:38:fa:42:d5:bf:
         0b:e5:3f:45:74:30:03:3a:60:ec:bb:7b:e0:53:4e:9e:6e:89:
         f6:18:99:42:63:d3:e8:ec:e1:c8:14:ac:49:e2:e5:da:68:ff:
         b3:2a:fc:fe:6c:1e:c2:e8:d4:81:9b:20:41:a6:41:9b:77:d6:
         e7:11:cf:b5:ab:ee:c2:17:ce:38:38:7e:c9:10:f1:1a:45:7e:
         2a:59:6a:a7:0c:1a:54:ae:e7:58:12:a9:53:bd:b9:ad:7f:8c:
         df:70:05:73:af:87:42:44:e7:00:f7:0f:b7:af:81:7c:e2:20:
         cb:7f:0a:74:e3:9f:de:f8:12:90:79:05:3a:1c:2d:15:76:10:
         f3:37:b6:78:cd:42:dd:ef:96:55:b6:16:6d:82:d2:bb:14:36:
         17:56:10:36:e1:78:fc:85:49:55:af:7a:3f:fa:9f:8a:35:9a:
         9c:67:33:f1:16:b2:57:55:fe:9a:da:80:6a:68:80:61:61:79:
         00:d7:2a:26
-----BEGIN CERTIFICATE-----
MIIEQTCCAymgAwIBAgIBCTANBgkqhkiG9w0BAQsFADBrMQswCQYDVQQGEwJTRTEQ
MA4GA1UECgwHRXhhbXBsZTEmMCQGA1UECwwdRXhhbXBsZSBDZXJ0aWZpY2F0ZSBB
dXRob3JpdHkxIjAgBgNVBAMMGUV4YW1wbGUgQ2x1c3RlciBBdXRob3JpdHkwHhcN
MjQxMjEyMTIxNzQxWhcNMzAwNjA0MTIxNzQxWjBMMQswCQYDVQQGEwJTRTEQMA4G
A1UECgwHRXhhbXBsZTEYMBYGA1UECwwPRXhhbXBsZSBDbHVzdGVyMREwDwYDVQQD
DAhTZXJ2ZXIgODCCASIwDQYJKoZIhvcNAQEBBQADggEPADCCAQoCggEBAMK2LbYB
JanoPUy3GjqAu9qXSCtsT7jUv3FtyC1nTVL+uw8ntyuyGmgDOLqCILfy8VbS0dE8
BidRa47yCPWhHmFFWhCG3BVSqMB/R91FzcIeFFZb4hKxS1tbiRdSQWsi/LzQFiBv
YUcZFPbsn33BxCWgikoxqQy84siDYB7KId64M9sl2eVDmp57bE5Sldo/vgU399fH
aPBQMvYaMg1JcXN2EdNOg4CST1uK7BPB/jQbpk0RhoqKtiTcQoTv8Wgv9otEkrc7
6PVOjGG8B5Zv02UlVJBFiXafEM5fKMNqXJbofQSW4hyzTrtUlCVHzC1pv0nQt4C8
f2Jg4fCToR+rFoUCAwEAAaOCAQ0wggEJMA4GA1UdDwEB/wQEAwIFoDAJBgNVHRME
AjAAMB0GA1UdJQQWMBQGCCsGAQUFBwMBBggrBgEFBQcDAjAdBgNVHQ4EFgQUCs3d
0WH8JdoeUCBFdBX6wGYZdUEwHwYDVR0jBBgwFoAUvZjCGSBGLOT+6199Qznj68dy
ddgwPQYIKwYBBQUHAQEEMTAvMC0GCCsGAQUFBzAChiFodHRwOi8vZXhhbXBsZS5j
b20vY2EvY2x1c3Rlci5jZXIwMgYDVR0fBCswKTAnoCWgI4YhaHR0cDovL2V4YW1w
bGUuY29tL2NhL2NsdXN0ZXIuY3JsMBoGA1UdEQQTMBGCCWxvY2FsaG9zdIcEfwAA
ATANBgkqhkiG9w0BAQsFAAOCAQEAGVIZzrkZzRC7LhhISXnJSvwT+OlZt5QQ15lS
eGImP/O/OwwPJZi73WxCd0qQc3pwOWS8/O9SLZObwnqij21FVgwpzjj6QtW/C+U/
RXQwAzpg7Lt74FNOnm6J9hiZQmPT6OzhyBSsSeLl2mj/syr8/mwewujUgZsgQaZB
m3fW5xHPtavuwhfOODh+yRDxGkV+KllqpwwaVK7nWBKpU725rX+M33AFc6+HQkTn
APcPt6+BfOIgy38KdOOf3vgSkHkFOhwtFXYQ8ze2eM1C3e+WVbYWbYLSuxQ2F1YQ
NuF4/IVJVa96P/qfijWanGcz8RayV1X+mtqAamiAYWF5ANcqJg==
-----END CERTIFICATE-----
