Certificate:
    Data:
        Version: 3 (0x2)
        Serial Number: 12 (0xc)
    Signature Algorithm: sha256WithRSAEncryption
        Issuer: C=SE, O=Example, OU=Example Certificate Authority, CN=Example Cluster Authority
        Validity
            Not Before: Dec 12 12:17:42 2024 GMT
            Not After : Jun  4 12:17:42 2030 GMT
        Subject: C=SE, O=Example, OU=Example Cluster, CN=Server 11
        Subject Public Key Info:
            Public Key Algorithm: rsaEncryption
                RSA Public-Key: (2048 bit)
                Modulus:
                    00:d4:2c:a3:38:98:65:b1:81:65:ba:6d:99:2d:b1:
                    aa:85:0c:54:e0:dd:10:de:4c:1e:3b:4d:a2:63:7c:
                    66:23:2f:40:dd:c5:59:89:9e:26:82:58:06:63:4e:
                    04:6f:56:a0:d2:87:5e:39:7b:ba:db:b8:c4:50:29:
                    94:4b:73:db:6b:41:d8:5b:6e:30:d3:b2:3c:10:13:
                    7e:9e:92:3b:7a:55:f7:8e:88:c5:a0:b6:87:9c:fa:
                    37:13:7b:17:c2:57:bd:f0:6e:2a:25:4f:2b:36:99:
                    f4:bf:a2:a0:79:e6:bc:32:9d:5f:f5:a0:d4:92:32:
                    71:59:d3:bc:1e:6a:a5:92:92:0d:a2:d3:12:6b:a1:
                    48:8b:8e:b0:46:f1:14:70:b8:19:40:08:2c:29:23:
                    29:8f:d3:1b:d5:e9:7f:30:c4:02:97:e7:4a:f3:1e:
                    4d:52:30:0b:23:3f:6c:7d:f7:fd:90:4e:69:91:3e:
                    9c:09:71:49:49:5d:14:b9:c4:cb:02:2d:c3:6a:e3:
                    92:21:ee:ae:c2:8a:db:58:0f:b3:a0:f0:85:fd:31:
                    fc:58:e3:2c:48:f0:74:52:43:a0:20:46:89:08:b6:
                    71:af:cc:bf:33:14:00:f1:f1:a1:80:e2:71:bb:57:
                    aa:67:2f:4a:cc:04:1f:7c:58:3c:3a:08:fa:ff:48:
                    59:3d
                Exponent: 65537 (0x10001)
        X509v3 extensions:
            X509v3 Key Usage: critical
                Digital Signature, Key Encipherment
            X509v3 Basic Constraints: 
                CA:FALSE
            X509v3 Extended Key Usage: 
                TLS Web Server Authentication, TLS Web Client Authentication
            X509v3 Subject Key Identifier: 
                AE:8B:24:0C:C1:04:E4:D9:C3:F3:C3:D3:7B:1C:57:81:F2:7D:CF:9F
            X509v3 Authority Key Identifier: 
                keyid:BD:98:C2:19:20:46:2C:E4:FE:EB:5F:7D:43:39:E3:EB:C7:72:75:D8

            Authority Information Access: 
                CA Issuers - URI:http://example.com/ca/cluster.cer

            X509v3 CRL Distribution Points: 

                Full Name:
                  URI:http://example.com/ca/cluster.crl

            X509v3 Subject Alternative Name: 
                DNS:localhost, IP Address:127.0.0.1
    Signature Algorithm: sha256WithRSAEncryption
         30:a3:38:7a:e1:c0:c2:98:4a:cc:ea:1f:ce:20:cf:b9:63:22:
         e7:1d:9e:00:fc:1d:a7:54:ba:f7:67:68:0b:eb:3f:06:90:38:
         05:e7:b8:52:9e:77:93:be:d7:78:b8:0e:5e:f8:f7:29:a7:7f:
         c7:52:5e:8c:30:b3:0d:fc:e9:39:70:61:b7:99:87:24:4d:3f:
         25:7e:7e:22:ec:de:b3:d2:7e:50:9b:ae:d8:ed:86:02:e9:8f:
         7b:e9:62:7c:b7:90:35:c0:14:32:5b:2c:69:ed:57:5f:89:f9:
         f7:7e:1b:fc:d7:35:2f:4b:6d:a3:eb:74:fa:16:38:32:29:fc:
         ec:6f:02:e7:47:a6:eb:0f:73:92:49:94:b0:5d:e4:07:4d:b2:
         12:e6:94:34:56:9f:05:61:d0:44:41:51:f6:5d:64:1a:22:0f:
         eb:6e:dc:b2:36:95:35:16:39:88:84:ac:0f:a0:17:3c:f6:52:
         9c:5f:cd:2b:84:05:9b:30:f7:d8:d3:af:16:48:ba:37:2a:28:
         0a:cf:3f:5d:13:a0:96:e5:9c:ce:bc:fc:d8:ed:a3:67:10:f6:
         d5:22:b3:be:db:81:e5:9b:d0:9a:1e:6c:ce:0e:a1:32:56:fb:
         2c:ee:6d:39:e9:ba:71:18:f8:19:b1:5a:07:e4:cf:58:9a:d5:
         5c:e6:69:03
-----BEGIN CERTIFICATE-----
MIIEQjCCAyqgAwIBAgIBDDANBgkqhkiG9w0BAQsFADBrMQswCQYDVQQGEwJTRTEQ
MA4GA1UECgwHRXhhbXBsZTEmMCQGA1UECwwdRXhhbXBsZSBDZXJ0aWZpY2F0ZSBB
dXRob3JpdHkxIjAgBgNVBAMMGUV4YW1wbGUgQ2x1c3RlciBBdXRob3JpdHkwHhcN
MjQxMjEyMTIxNzQyWhcNMzAwNjA0MTIxNzQyWjBNMQswCQYDVQQGEwJTRTEQMA4G
A1UECgwHRXhhbXBsZTEYMBYGA1UECwwPRXhhbXBsZSBDbHVzdGVyMRIwEAYDVQQD
DAlTZXJ2ZXIgMTEwggEiMA0GCSqGSIb3DQEBAQUAA4IBDwAwggEKAoIBAQDULKM4
mGWxgWW6bZktsaqFDFTg3RDeTB47TaJjfGYjL0DdxVmJniaCWAZjTgRvVqDSh145
e7rbuMRQKZRLc9trQdhbbjDTsjwQE36ekjt6VfeOiMWgtoec+jcTexfCV73wbiol
Tys2mfS/oqB55rwynV/1oNSSMnFZ07weaqWSkg2i0xJroUiLjrBG8RRwuBlACCwp
IymP0xvV6X8wxAKX50rzHk1SMAsjP2x99/2QTmmRPpwJcUlJXRS5xMsCLcNq45Ih
7q7CittYD7Og8IX9MfxY4yxI8HRSQ6AgRokItnGvzL8zFADx8aGA4nG7V6pnL0rM
BB98WDw6CPr/SFk9AgMBAAGjggENMIIBCTAOBgNVHQ8BAf8EBAMCBaAwCQYDVR0T
BAIwADAdBgNVHSUEFjAUBggrBgEFBQcDAQYIKwYBBQUHAwIwHQYDVR0OBBYEFK6L
JAzBBOTZw/PD03scV4Hyfc+fMB8GA1UdIwQYMBaAFL2YwhkgRizk/utffUM54+vH
cnXYMD0GCCsGAQUFBwEBBDEwLzAtBggrBgEFBQcwAoYhaHR0cDovL2V4YW1wbGUu
Y29tL2NhL2NsdXN0ZXIuY2VyMDIGA1UdHwQrMCkwJ6AloCOGIWh0dHA6Ly9leGFt
cGxlLmNvbS9jYS9jbHVzdGVyLmNybDAaBgNVHREEEzARgglsb2NhbGhvc3SHBH8A
AAEwDQYJKoZIhvcNAQELBQADggEBADCjOHrhwMKYSszqH84gz7ljIucdngD8HadU
uvdnaAvrPwaQOAXnuFKed5O+13i4Dl749ymnf8dSXowwsw386TlwYbeZhyRNPyV+
fiLs3rPSflCbrtjthgLpj3vpYny3kDXAFDJbLGntV1+J+fd+G/zXNS9LbaPrdPoW
ODIp/OxvAudHpusPc5JJlLBd5AdNshLmlDRWnwVh0ERBUfZdZBoiD+tu3LI2lTUW
OYiErA+gFzz2UpxfzSuEBZsw99jTrxZIujcqKArPP10ToJblnM68/Njto2cQ9tUi
s77bgeWb0JoebM4OoTJW+yzubTnpunEY+BmxWgfkz1ia1VzmaQM=
-----END CERTIFICATE-----
