Certificate:
    Data:
        Version: 3 (0x2)
        Serial Number: 5 (0x5)
    Signature Algorithm: sha256WithRSAEncryption
        Issuer: C=SE, O=Example, OU=Example Certificate Authority, CN=Example Cluster Authority
        Validity
            Not Before: Dec 12 12:17:40 2024 GMT
            Not After : Jun  4 12:17:40 2030 GMT
        Subject: C=SE, O=Example, OU=Example Cluster, CN=Server 4
        Subject Public Key Info:
            Public Key Algorithm: rsaEncryption
                RSA Public-Key: (2048 bit)
                Modulus:
                    00:c9:03:86:2c:7d:7e:0f:95:cc:ca:1e:65:fa:07:
                    62:54:b2:ec:9c:90:04:36:10:f7:3e:6b:ce:62:f4:
                    ef:38:18:e3:12:e8:d6:39:4a:7d:b1:5b:41:47:c2:
                    04:25:50:02:62:c6:b7:ec:ef:1a:a3:50:e8:3c:ea:
                    49:07:1a:2d:99:50:e4:ac:6f:63:f7:ea:92:16:0c:
                    02:ea:54:dd:1c:2d:23:93:ef:3f:07:d3:ba:0f:69:
                    4a:a2:34:27:10:66:f5:ae:8f:c7:8a:4a:d0:0e:ed:
                    ec:04:a7:8c:cb:68:e8:27:06:0b:cd:ba:2c:50:ab:
                    bf:a5:0b:cd:aa:97:f3:41:cb:a2:b3:b8:f8:61:59:
                    b5:b6:45:43:ed:25:c9:e8:c2:35:99:5e:9c:67:33:
                    a2:4f:03:52:53:0d:dc:12:74:06:73:bb:27:d0:44:
                    2f:f9:95:01:82:4d:d3:74:ae:24:f5:da:1f:b8:ac:
                    ad:ee:44:6b:c0:1a:44:01:71:c0:cb:8c:0d:41:b7:
                    6f:cf:18:29:d0:23:b2:2e:9d:a7:58:bc:92:1b:15:
                    81:2b:b1:0f:85:2c:d5:87:3c:b0:35:9c:c5:9c:9f:
                    1d:15:fa:dd:70:da:19:47:42:e7:2a:03:54:09:4d:
                    f0:3a:d7:08:1c:6f:24:41:12:6c:b6:fc:be:1b:a5:
                    00:49
                Exponent: 65537 (0x10001)
        X509v3 extensions:
            X509v3 Key Usage: critical
                Digital Signature, Key Encipherment
            X509v3 Basic Constraints: 
                CA:FALSE
            X509v3 Extended Key Usage: 
                TLS Web Server Authentication, TLS Web Client Authentication
            X509v3 Subject Key Identifier: 
                64:78:AE:08:51:B3:54:42:DC:59:03:8B:7F:B8:2C:68:F3:79:E1:E3
            X509v3 Authority Key Identifier: 
                keyid:BD:98:C2:19:20:46:2C:E4:FE:EB:5F:7D:43:39:E3:EB:C7:72:75:D8

            Authority Information Access: 
                CA Issuers - URI:http://example.com/ca/cluster.cer

            X509v3 CRL Distribution Points: 

                Full Name:
                  URI:http://example.com/ca/cluster.crl

            X509v3 Subject Alternative Name: 
                DNS:localhost, IP Address:127.0.0.1
    Signature Algorithm: sha256WithRSAEncryption
         0e:06:c0:67:59:cb:21:49:79:42:f5:c1:d0:e6:e9:81:1f:9c:
         cf:c1:bb:43:82:d8:26:85:65:de:c4:a4:a2:dd:b3:82:d1:dc:
         f8:ff:9d:f4:20:46:3f:04:21:75:91:e3:21:46:37:ca:78:8d:
         a0:8e:20:45:e4:a6:8e:5d:48:87:46:2f:09:40:61:61:76:03:
         d7:83:46:96:32:83:41:7a:b5:ea:15:7b:03:f2:26:8c:4e:7c:
         82:5f:e5:d9:70:6a:e2:64:3b:59:58:9b:1c:b5:28:2e:7b:ad:
         17:68:5c:47:f1:cd:66:ff:29:d3:85:2b:cd:12:60:83:04:f5:
         ce:c5:58:0c:41:39:7d:ea:f1:04:80:ef:13:32:5d:a6:e5:bd:
         f5:2a:60:a2:e2:38:8f:44:07:74:2b:86:f3:58:98:bf:8b:43:
         39:39:2c:f3:0e:09:8c:df:ab:1d:8e:de:e8:bf:48:a4:b3:b6:
         a4:51:b2:9d:0e:56:72:20:1f:e1:e9:ee:bf:ff:88:69:20:7f:
         61:cd:fd:e3:1e:6e:01:a4:01:8a:e0:31:94:04:44:35:4f:89:
         e9:e7:52:66:76:f1:72:65:36:6e:6f:d6:40:28:00:c7:5c:8f:
         4f:0a:71:93:39:20:38:87:0e:a0:e5:57:43:c8:2e:1b:36:20:
         8a:75:b2:51
-----BEGIN CERTIFICATE-----
MIIEQTCCAymgAwIBAgIBBTANBgkqhkiG9w0BAQsFADBrMQswCQYDVQQGEwJTRTEQ
MA4GA1UECgwHRXhhbXBsZTEmMCQGA1UECwwdRXhhbXBsZSBDZXJ0aWZpY2F0ZSBB
dXRob3JpdHkxIjAgBgNVBAMMGUV4YW1wbGUgQ2x1c3RlciBBdXRob3JpdHkwHhcN
MjQxMjEyMTIxNzQwWhcNMzAwNjA0MTIxNzQwWjBMMQswCQYDVQQGEwJTRTEQMA4G
A1UECgwHRXhhbXBsZTEYMBYGA1UECwwPRXhhbXBsZSBDbHVzdGVyMREwDwYDVQQD
DAhTZXJ2ZXIgNDCCASIwDQYJKoZIhvcNAQEBBQADggEPADCCAQoCggEBAMkDhix9
fg+VzMoeZfoHYlSy7JyQBDYQ9z5rzmL07zgY4xLo1jlKfbFbQUfCBCVQAmLGt+zv
GqNQ6DzqSQcaLZlQ5KxvY/fqkhYMAupU3RwtI5PvPwfTug9pSqI0JxBm9a6Px4pK
0A7t7ASnjMto6CcGC826LFCrv6ULzaqX80HLorO4+GFZtbZFQ+0lyejCNZlenGcz
ok8DUlMN3BJ0BnO7J9BEL/mVAYJN03SuJPXaH7isre5Ea8AaRAFxwMuMDUG3b88Y
KdAjsi6dp1i8khsVgSuxD4Us1Yc8sDWcxZyfHRX63XDaGUdC5yoDVAlN8DrXCBxv
JEESbLb8vhulAEkCAwEAAaOCAQ0wggEJMA4GA1UdDwEB/wQEAwIFoDAJBgNVHRME
AjAAMB0GA1UdJQQWMBQGCCsGAQUFBwMBBggrBgEFBQcDAjAdBgNVHQ4EFgQUZHiu
CFGzVELcWQOLf7gsaPN54eMwHwYDVR0jBBgwFoAUvZjCGSBGLOT+6199Qznj68dy
ddgwPQYIKwYBBQUHAQEEMTAvMC0GCCsGAQUFBzAChiFodHRwOi8vZXhhbXBsZS5j
b20vY2EvY2x1c3Rlci5jZXIwMgYDVR0fBCswKTAnoCWgI4YhaHR0cDovL2V4YW1w
bGUuY29tL2NhL2NsdXN0ZXIuY3JsMBoGA1UdEQQTMBGCCWxvY2FsaG9zdIcEfwAA
ATANBgkqhkiG9w0BAQsFAAOCAQEADgbAZ1nLIUl5QvXB0ObpgR+cz8G7Q4LYJoVl
3sSkot2zgtHc+P+d9CBGPwQhdZHjIUY3yniNoI4gReSmjl1Ih0YvCUBhYXYD14NG
ljKDQXq16hV7A/ImjE58gl/l2XBq4mQ7WVibHLUoLnutF2hcR/HNZv8p04UrzRJg
gwT1zsVYDEE5ferxBIDvEzJdpuW99SpgouI4j0QHdCuG81iYv4tDOTks8w4JjN+r
HY7e6L9IpLO2pFGynQ5WciAf4enuv/+IaSB/Yc394x5uAaQBiuAxlARENU+J6edS
ZnbxcmU2bm/WQCgAx1yPTwpxkzkgOIcOoOVXQ8guGzYginWyUQ==
-----END CERTIFICATE-----
