Certificate:
    Data:
        Version: 3 (0x2)
        Serial Number: 1 (0x1)
    Signature Algorithm: sha256WithRSAEncryption
        Issuer: C=SE, O=Example, OU=Example Certificate Authority, CN=Example Cluster Authority
        Validity
            Not Before: Dec 12 12:17:40 2024 GMT
            Not After : Jun  4 12:17:40 2030 GMT
        Subject: C=SE, O=Example, OU=Example Cluster, CN=Server 0
        Subject Public Key Info:
            Public Key Algorithm: rsaEncryption
                RSA Public-Key: (2048 bit)
                Modulus:
                    00:a2:00:f8:43:29:6a:2f:1c:b7:d1:e1:d0:bf:f2:
                    e5:92:d5:0f:44:09:06:34:ac:4b:7a:42:8b:73:87:
                    18:3f:dd:ff:7a:e2:89:fc:89:26:77:60:c1:b5:ba:
                    7b:2b:7a:f3:04:c8:c3:71:46:e5:37:66:0c:71:0a:
                    e0:31:e9:7d:e2:3d:8e:f2:24:34:7f:b3:96:59:47:
                    40:8a:b5:ef:07:1d:86:17:be:35:11:39:68:75:6f:
                    bf:3a:31:09:65:46:8a:a1:80:4d:28:3b:ea:d0:f8:
                    48:d8:d7:ed:53:88:5a:6c:1b:f7:4d:97:79:26:af:
                    c8:fd:b6:0c:ad:84:b1:73:ea:4b:14:70:e0:d2:3c:
                    f5:9c:2c:38:c4:1e:35:e3:69:75:4c:9b:7a:b3:12:
                    c1:eb:40:b8:78:19:e3:43:2c:71:07:d3:64:79:1f:
                    a1:ff:17:8f:46:c7:24:70:91:87:2b:fd:d3:31:92:
                    4b:6b:79:ad:96:65:19:df:b9:10:74:6a:0b:0a:03:
                    a2:4a:37:18:da:1f:cb:de:5a:c8:1c:17:d4:d3:31:
                    5d:00:f1:c1:ca:29:93:d9:c7:a3:33:31:0c:76:15:
                    c1:74:92:8f:4d:e1:6c:44:f9:38:c9:2a:46:2e:d9:
                    f2:79:77:bc:56:09:db:04:e0:0d:8b:4f:4e:65:05:
                    f6:bb
                Exponent: 65537 (0x10001)
        X509v3 extensions:
            X509v3 Key Usage: critical
                Digital Signature, Key Encipherment
            X509v3 Basic Constraints: 
                CA:FALSE
            X509v3 Extended Key Usage: 
                TLS Web Server Authentication, TLS Web Client Authentication
            X509v3 Subject Key Identifier: 
                E9:E4:D4:EB:7E:C8:DD:19:B0:86:0C:B0:28:3A:E3:2E:C0:F7:0D:47
            X509v3 Authority Key Identifier: 
                keyid:BD:98:C2:19:20:46:2C:E4:FE:EB:5F:7D:43:39:E3:EB:C7:72:75:D8

            Authority Information Access: 
                CA Issuers - URI:http://example.com/ca/cluster.cer

            X509v3 CRL Distribution Points: 

                Full Name:
                  URI:http://example.com/ca/cluster.crl

            X509v3 Subject Alternative Name: 
                DNS:localhost, IP Address:127.0.0.1
    Signature Algorithm: sha256WithRSAEncryption
         12:71:b9:73:64:87:3f:3a:34:5b:82:b8:50:db:6a:cd:26:f9:
         d6:bc:e3:44:01:ac:af:15:7f:67:12:fc:9c:74:ab:cd:0a:89:
         ef:31:30:38:5a:74:7f:80:22:84:34:e2:ae:91:50:b7:62:e1:
         22:13:49:ff:a0:79:b5:a4:4c:6e:d0:88:88:ea:93:95:3f:d3:
         18:c2:2a:fa:79:82:26:3f:37:bf:d6:f8:36:9d:17:e7:4a:03:
         10:74:2a:d5:5b:aa:ed:f9:53:8e:a9:3b:aa:b2:d1:b0:6e:4e:
         1c:87:5d:ac:fc:54:82:f0:40:5a:00:93:4f:5a:0f:7b:d2:d3:
         90:d0:4a:dd:df:23:04:63:b3:f7:9f:6e:0c:88:0b:16:bf:f6:
         4b:82:5e:34:36:9f:e1:28:f9:5d:85:57:9b:c3:9a:f8:42:22:
         fa:ca:8a:2f:8a:80:bb:2b:e1:0d:46:92:7a:29:32:f2:84:51:
         ad:6a:37:62:2a:48:ac:5b:41:a1:85:fd:9d:23:3f:e2:45:61:
         f3:0a:fe:36:2d:23:65:39:24:eb:0f:dc:7e:ef:bd:1b:9f:6e:
         88:19:4f:13:8a:e5:da:77:df:71:78:19:8c:78:37:26:d3:7c:
         19:fd:cc:3e:e8:4b:c6:b3:18:5c:7c:20:a4:81:ed:ab:f0:a8:
         ab:b6:19:33
-----BEGIN CERTIFICATE-----
MIIEQTCCAymgAwIBAgIBATANBgkqhkiG9w0BAQsFADBrMQswCQYDVQQGEwJTRTEQ
MA4GA1UECgwHRXhhbXBsZTEmMCQGA1UECwwdRXhhbXBsZSBDZXJ0aWZpY2F0ZSBB
dXRob3JpdHkxIjAgBgNVBAMMGUV4YW1wbGUgQ2x1c3RlciBBdXRob3JpdHkwHhcN
MjQxMjEyMTIxNzQwWhcNMzAwNjA0MTIxNzQwWjBMMQswCQYDVQQGEwJTRTEQMA4G
A1UECgwHRXhhbXBsZTEYMBYGA1UECwwPRXhhbXBsZSBDbHVzdGVyMREwDwYDVQQD
DAhTZXJ2ZXIgMDCCASIwDQYJKoZIhvcNAQEBBQADggEPADCCAQoCggEBAKIA+EMp
ai8ct9Hh0L/y5ZLVD0QJBjSsS3pCi3OHGD/d/3riifyJJndgwbW6eyt68wTIw3FG
5TdmDHEK4DHpfeI9jvIkNH+zlllHQIq17wcdhhe+NRE5aHVvvzoxCWVGiqGATSg7
6tD4SNjX7VOIWmwb902XeSavyP22DK2EsXPqSxRw4NI89ZwsOMQeNeNpdUyberMS
wetAuHgZ40MscQfTZHkfof8Xj0bHJHCRhyv90zGSS2t5rZZlGd+5EHRqCwoDoko3
GNofy95ayBwX1NMxXQDxwcopk9nHozMxDHYVwXSSj03hbET5OMkqRi7Z8nl3vFYJ
2wTgDYtPTmUF9rsCAwEAAaOCAQ0wggEJMA4GA1UdDwEB/wQEAwIFoDAJBgNVHRME
AjAAMB0GA1UdJQQWMBQGCCsGAQUFBwMBBggrBgEFBQcDAjAdBgNVHQ4EFgQU6eTU
637I3RmwhgywKDrjLsD3DUcwHwYDVR0jBBgwFoAUvZjCGSBGLOT+6199Qznj68dy
ddgwPQYIKwYBBQUHAQEEMTAvMC0GCCsGAQUFBzAChiFodHRwOi8vZXhhbXBsZS5j
b20vY2EvY2x1c3Rlci5jZXIwMgYDVR0fBCswKTAnoCWgI4YhaHR0cDovL2V4YW1w
bGUuY29tL2NhL2NsdXN0ZXIuY3JsMBoGA1UdEQQTMBGCCWxvY2FsaG9zdIcEfwAA
ATANBgkqhkiG9w0BAQsFAAOCAQEAEnG5c2SHPzo0W4K4UNtqzSb51rzjRAGsrxV/
ZxL8nHSrzQqJ7zEwOFp0f4AihDTirpFQt2LhIhNJ/6B5taRMbtCIiOqTlT/TGMIq
+nmCJj83v9b4Np0X50oDEHQq1Vuq7flTjqk7qrLRsG5OHIddrPxUgvBAWgCTT1oP
e9LTkNBK3d8jBGOz959uDIgLFr/2S4JeNDaf4Sj5XYVXm8Oa+EIi+sqKL4qAuyvh
DUaSeiky8oRRrWo3YipIrFtBoYX9nSM/4kVh8wr+Ni0jZTkk6w/cfu+9G59uiBlP
E4rl2nffcXgZjHg3JtN8Gf3MPuhLxrMYXHwgpIHtq/Coq7YZMw==
-----END CERTIFICATE-----
