Certificate:
    Data:
        Version: 3 (0x2)
        Serial Number: 2 (0x2)
    Signature Algorithm: sha256WithRSAEncryption
        Issuer: C=SE, O=Example, OU=Example Certificate Authority, CN=Example Cluster Authority
        Validity
            Not Before: Dec 12 12:17:40 2024 GMT
            Not After : Jun  4 12:17:40 2030 GMT
        Subject: C=SE, O=Example, OU=Example Cluster, CN=Server 1
        Subject Public Key Info:
            Public Key Algorithm: rsaEncryption
                RSA Public-Key: (2048 bit)
                Modulus:
                    00:b3:c6:65:4f:06:42:d4:40:af:ca:7b:dc:aa:20:
                    28:6c:f2:f9:88:36:6a:b0:85:da:ab:06:88:32:2c:
                    10:0d:89:3b:57:1e:dd:9b:86:0c:a0:4d:78:22:fd:
                    aa:91:78:23:46:be:b0:b3:f5:e0:0f:df:1d:ce:91:
                    55:f6:2b:94:bb:c9:85:2b:12:c5:e1:42:20:dd:27:
                    46:09:34:6e:9b:8f:d3:9e:b5:e9:b2:51:52:42:38:
                    9f:db:53:32:26:59:0d:e3:5e:29:e4:35:2f:fc:e6:
                    4b:d7:f1:52:5f:b3:62:25:d5:3b:6f:e4:fb:20:e2:
                    2d:94:7c:78:c8:13:f9:bd:99:0b:ad:22:51:9f:ae:
                    23:41:81:94:69:d4:6f:99:aa:47:6a:18:c4:41:cf:
                    89:75:77:6c:a7:d6:02:a7:d1:07:79:d3:8f:32:82:
                    0a:56:ee:32:c8:52:67:c4:3f:ac:71:48:eb:9c:93:
                    13:47:f7:de:0c:52:d5:b5:fc:65:e4:05:55:fb:5a:
                    ba:84:6a:20:11:39:dd:71:82:01:c6:68:e9:d6:d6:
                    5f:bf:b6:c5:42:79:50:c1:38:4e:bf:72:44:8f:26:
                    15:f1:a1:2b:4d:28:f4:6d:9f:fe:4c:2a:e3:3c:8d:
                    e6:c7:3b:78:91:01:6f:93:4f:8a:bc:0e:0d:f5:fe:
                    0e:73
                Exponent: 65537 (0x10001)
        X509v3 extensions:
            X509v3 Key Usage: critical
                Digital Signature, Key Encipherment
            X509v3 Basic Constraints: 
                CA:FALSE
            X509v3 Extended Key Usage: 
                TLS Web Server Authentication, TLS Web Client Authentication
            X509v3 Subject Key Identifier: 
                FF:C5:26:95:18:1E:E0:DE:44:3C:5F:85:C4:93:4C:07:A5:D8:11:63
            X509v3 Authority Key Identifier: 
                keyid:BD:98:C2:19:20:46:2C:E4:FE:EB:5F:7D:43:39:E3:EB:C7:72:75:D8

            Authority Information Access: 
                CA Issuers - URI:http://example.com/ca/cluster.cer

            X509v3 CRL Distribution Points: 

                Full Name:
                  URI:http://example.com/ca/cluster.crl

            X509v3 Subject Alternative Name: 
                DNS:localhost, IP Address:127.0.0.1
    Signature Algorithm: sha256WithRSAEncryption
         35:68:7d:f3:07:f8:0b:da:f0:f9:eb:96:8d:95:a7:b2:0e:16:
         03:80:b6:f6:b7:7e:c9:fd:95:46:91:ee:d4:af:01:5c:44:ed:
         62:3d:29:a1:e1:9d:d4:66:bf:33:c7:92:14:b6:b5:7a:44:43:
         7e:76:51:29:00:d5:dc:f7:fb:ca:1b:18:2d:c5:57:14:47:14:
         ef:1b:13:77:c5:17:a1:53:e5:5b:c3:05:15:91:a0:41:00:d8:
         5c:67:3a:14:88:1c:9f:89:e2:5c:06:5e:c8:48:60:82:8c:ff:
         12:db:28:cc:09:fe:36:04:3d:51:f6:81:60:54:5d:ce:91:5a:
         41:80:b6:48:a5:4f:23:70:f1:ef:20:fc:d4:82:69:37:c1:c8:
         ca:96:24:6a:75:b8:a8:a0:76:f9:4f:a4:ad:d7:67:b9:61:ca:
         c8:df:86:97:35:7c:3b:d6:d7:d5:00:39:43:aa:e3:86:fb:78:
         a7:f6:68:41:9f:8c:f0:8a:a2:e4:14:c2:33:58:7a:eb:de:2c:
         8f:4f:b6:1d:2e:94:88:58:39:25:61:f4:d0:ab:e7:24:e0:de:
         d0:5f:88:bf:2a:fc:2b:a9:77:77:bb:0d:1a:f3:d4:94:cc:5b:
         ec:9e:fb:34:0f:fa:05:19:bf:b0:10:cb:c4:46:87:84:55:ec:
         7d:13:61:7e
-----BEGIN CERTIFICATE-----
MIIEQTCCAymgAwIBAgIBAjANBgkqhkiG9w0BAQsFADBrMQswCQYDVQQGEwJTRTEQ
MA4GA1UECgwHRXhhbXBsZTEmMCQGA1UECwwdRXhhbXBsZSBDZXJ0aWZpY2F0ZSBB
dXRob3JpdHkxIjAgBgNVBAMMGUV4YW1wbGUgQ2x1c3RlciBBdXRob3JpdHkwHhcN
MjQxMjEyMTIxNzQwWhcNMzAwNjA0MTIxNzQwWjBMMQswCQYDVQQGEwJTRTEQMA4G
A1UECgwHRXhhbXBsZTEYMBYGA1UECwwPRXhhbXBsZSBDbHVzdGVyMREwDwYDVQQD
DAhTZXJ2ZXIgMTCCASIwDQYJKoZIhvcNAQEBBQADggEPADCCAQoCggEBALPGZU8G
QtRAr8p73KogKGzy+Yg2arCF2qsGiDIsEA2JO1ce3ZuGDKBNeCL9qpF4I0a+sLP1
4A/fHc6RVfYrlLvJhSsSxeFCIN0nRgk0bpuP05616bJRUkI4n9tTMiZZDeNeKeQ1
L/zmS9fxUl+zYiXVO2/k+yDiLZR8eMgT+b2ZC60iUZ+uI0GBlGnUb5mqR2oYxEHP
iXV3bKfWAqfRB3nTjzKCClbuMshSZ8Q/rHFI65yTE0f33gxS1bX8ZeQFVftauoRq
IBE53XGCAcZo6dbWX7+2xUJ5UME4Tr9yRI8mFfGhK00o9G2f/kwq4zyN5sc7eJEB
b5NPirwODfX+DnMCAwEAAaOCAQ0wggEJMA4GA1UdDwEB/wQEAwIFoDAJBgNVHRME
AjAAMB0GA1UdJQQWMBQGCCsGAQUFBwMBBggrBgEFBQcDAjAdBgNVHQ4EFgQU/8Um
lRge4N5EPF+FxJNMB6XYEWMwHwYDVR0jBBgwFoAUvZjCGSBGLOT+6199Qznj68dy
ddgwPQYIKwYBBQUHAQEEMTAvMC0GCCsGAQUFBzAChiFodHRwOi8vZXhhbXBsZS5j
b20vY2EvY2x1c3Rlci5jZXIwMgYDVR0fBCswKTAnoCWgI4YhaHR0cDovL2V4YW1w
bGUuY29tL2NhL2NsdXN0ZXIuY3JsMBoGA1UdEQQTMBGCCWxvY2FsaG9zdIcEfwAA
ATANBgkqhkiG9w0BAQsFAAOCAQEANWh98wf4C9rw+euWjZWnsg4WA4C29rd+yf2V
RpHu1K8BXETtYj0poeGd1Ga/M8eSFLa1ekRDfnZRKQDV3Pf7yhsYLcVXFEcU7xsT
d8UXoVPlW8MFFZGgQQDYXGc6FIgcn4niXAZeyEhggoz/EtsozAn+NgQ9UfaBYFRd
zpFaQYC2SKVPI3Dx7yD81IJpN8HIypYkanW4qKB2+U+krddnuWHKyN+GlzV8O9bX
1QA5Q6rjhvt4p/ZoQZ+M8Iqi5BTCM1h6694sj0+2HS6UiFg5JWH00KvnJODe0F+I
vyr8K6l3d7sNGvPUlMxb7J77NA/6BRm/sBDLxEaHhFXsfRNhfg==
-----END CERTIFICATE-----
