Certificate:
    Data:
        Version: 3 (0x2)
        Serial Number: 4 (0x4)
    Signature Algorithm: sha256WithRSAEncryption
        Issuer: C=SE, O=Example, OU=Example Certificate Authority, CN=Example Cluster Authority
        Validity
            Not Before: Dec 12 12:17:40 2024 GMT
            Not After : Jun  4 12:17:40 2030 GMT
        Subject: C=SE, O=Example, OU=Example Cluster, CN=Server 3
        Subject Public Key Info:
            Public Key Algorithm: rsaEncryption
                RSA Public-Key: (2048 bit)
                Modulus:
                    00:c2:eb:be:28:c3:24:1d:52:8c:76:11:47:ef:93:
                    2f:88:d3:72:6d:03:98:71:61:82:27:c3:85:1c:10:
                    6b:d6:14:9c:f3:97:49:5f:69:62:8f:66:84:90:8d:
                    ed:2e:b8:a0:79:60:2d:e8:54:cf:09:6e:d9:97:d1:
                    13:5d:a1:1f:e8:f4:7a:24:c7:e6:37:83:a2:bd:8f:
                    94:69:d0:27:95:8d:ac:30:2e:4a:bc:f5:72:9a:f1:
                    b6:45:ca:b6:2d:5f:25:ae:f1:be:91:43:14:06:07:
                    96:ce:d0:93:1d:96:38:b6:0b:b5:e0:b4:c8:78:22:
                    90:33:c5:cd:46:92:21:af:ce:9a:ea:cd:93:1d:36:
                    5d:72:d7:f5:fd:3a:78:3b:a4:96:f1:f9:d8:9f:f9:
                    83:c5:00:39:61:6a:4d:72:3d:f0:5f:ef:e1:33:b9:
                    ff:1f:63:d8:5b:0a:51:35:93:00:9e:ea:df:65:99:
                    bd:26:15:57:a8:1b:d4:50:32:f7:6d:79:43:8e:ec:
                    38:ff:c0:85:02:d3:c9:1d:ba:5a:a4:f8:45:a5:03:
                    e4:8d:69:4c:82:4d:62:cc:3c:18:bb:2d:69:d5:a7:
                    89:3d:ee:af:0b:a6:e5:d9:ba:39:d7:e0:c9:8d:29:
                    f5:a7:0d:70:5f:7b:b6:b2:0b:28:71:65:02:ef:c6:
                    5e:f9
                Exponent: 65537 (0x10001)
        X509v3 extensions:
            X509v3 Key Usage: critical
                Digital Signature, Key Encipherment
            X509v3 Basic Constraints: 
                CA:FALSE
            X509v3 Extended Key Usage: 
                TLS Web Server Authentication, TLS Web Client Authentication
            X509v3 Subject Key Identifier: 
                B7:5C:CA:72:CA:5B:4E:F3:9C:C5:57:9F:E1:0E:72:B7:44:CC:D3:CB
            X509v3 Authority Key Identifier: 
                keyid:BD:98:C2:19:20:46:2C:E4:FE:EB:5F:7D:43:39:E3:EB:C7:72:75:D8

            Authority Information Access: 
                CA Issuers - URI:http://example.com/ca/cluster.cer

            X509v3 CRL Distribution Points: 

                Full Name:
                  URI:http://example.com/ca/cluster.crl

            X509v3 Subject Alternative Name: 
                DNS:localhost, IP Address:127.0.0.1
    Signature Algorithm: sha256WithRSAEncryption
         6f:71:76:02:b1:ea:79:16:8f:2e:81:23:ef:ac:ec:85:b6:cc:
         f9:ec:38:59:95:72:17:c5:9b:ff:d8:12:9c:13:4b:41:18:d9:
         7b:9b:5b:10:f0:44:8a:2c:90:85:a8:31:7a:21:69:a3:e6:5a:
         ba:e8:78:50:c0:76:6e:a5:fd:82:60:28:82:c6:9d:d9:53:fb:
         bb:3e:52:58:bb:f7:ee:25:f8:70:b7:35:68:b4:8a:53:66:5d:
         c0:f1:53:7c:94:ad:f9:76:2b:20:f1:4d:16:7c:12:d7:e4:a3:
         67:cc:a1:44:04:e7:ee:d6:ca:03:0a:25:d2:26:43:02:f4:14:
         74:04:04:67:fd:b2:3a:05:90:63:1e:5e:51:9b:82:57:6f:d2:
         15:a2:e6:c4:00:02:78:21:d0:5b:76:85:14:34:bb:aa:0d:21:
         28:b0:12:85:f1:0f:81:56:89:6e:0a:d7:53:2f:fd:9e:d7:89:
         f4:be:a6:7b:60:bb:7c:af:a5:b0:0c:b9:b8:b4:0d:99:9f:69:
         5e:ec:48:82:83:97:dd:3d:06:1e:54:59:36:8c:37:39:fa:c7:
         e9:25:24:ba:fa:65:92:9d:bc:99:d9:64:8e:d6:e3:67:07:47:
         f4:a2:1b:ef:f4:0c:1f:c2:a9:ca:16:36:1f:56:5d:f0:5e:f4:
         ec:e9:84:3c
-----BEGIN CERTIFICATE-----
MIIEQTCCAymgAwIBAgIBBDANBgkqhkiG9w0BAQsFADBrMQswCQYDVQQGEwJTRTEQ
MA4GA1UECgwHRXhhbXBsZTEmMCQGA1UECwwdRXhhbXBsZSBDZXJ0aWZpY2F0ZSBB
dXRob3JpdHkxIjAgBgNVBAMMGUV4YW1wbGUgQ2x1c3RlciBBdXRob3JpdHkwHhcN
MjQxMjEyMTIxNzQwWhcNMzAwNjA0MTIxNzQwWjBMMQswCQYDVQQGEwJTRTEQMA4G
A1UECgwHRXhhbXBsZTEYMBYGA1UECwwPRXhhbXBsZSBDbHVzdGVyMREwDwYDVQQD
DAhTZXJ2ZXIgMzCCASIwDQYJKoZIhvcNAQEBBQADggEPADCCAQoCggEBAMLrvijD
JB1SjHYRR++TL4jTcm0DmHFhgifDhRwQa9YUnPOXSV9pYo9mhJCN7S64oHlgLehU
zwlu2ZfRE12hH+j0eiTH5jeDor2PlGnQJ5WNrDAuSrz1cprxtkXKti1fJa7xvpFD
FAYHls7Qkx2WOLYLteC0yHgikDPFzUaSIa/OmurNkx02XXLX9f06eDuklvH52J/5
g8UAOWFqTXI98F/v4TO5/x9j2FsKUTWTAJ7q32WZvSYVV6gb1FAy9215Q47sOP/A
hQLTyR26WqT4RaUD5I1pTIJNYsw8GLstadWniT3urwum5dm6OdfgyY0p9acNcF97
trILKHFlAu/GXvkCAwEAAaOCAQ0wggEJMA4GA1UdDwEB/wQEAwIFoDAJBgNVHRME
AjAAMB0GA1UdJQQWMBQGCCsGAQUFBwMBBggrBgEFBQcDAjAdBgNVHQ4EFgQUt1zK
cspbTvOcxVef4Q5yt0TM08swHwYDVR0jBBgwFoAUvZjCGSBGLOT+6199Qznj68dy
ddgwPQYIKwYBBQUHAQEEMTAvMC0GCCsGAQUFBzAChiFodHRwOi8vZXhhbXBsZS5j
b20vY2EvY2x1c3Rlci5jZXIwMgYDVR0fBCswKTAnoCWgI4YhaHR0cDovL2V4YW1w
bGUuY29tL2NhL2NsdXN0ZXIuY3JsMBoGA1UdEQQTMBGCCWxvY2FsaG9zdIcEfwAA
ATANBgkqhkiG9w0BAQsFAAOCAQEAb3F2ArHqeRaPLoEj76zshbbM+ew4WZVyF8Wb
/9gSnBNLQRjZe5tbEPBEiiyQhagxeiFpo+Zauuh4UMB2bqX9gmAogsad2VP7uz5S
WLv37iX4cLc1aLSKU2ZdwPFTfJSt+XYrIPFNFnwS1+SjZ8yhRATn7tbKAwol0iZD
AvQUdAQEZ/2yOgWQYx5eUZuCV2/SFaLmxAACeCHQW3aFFDS7qg0hKLAShfEPgVaJ
bgrXUy/9nteJ9L6me2C7fK+lsAy5uLQNmZ9pXuxIgoOX3T0GHlRZNow3OfrH6SUk
uvplkp28mdlkjtbjZwdH9KIb7/QMH8KpyhY2H1Zd8F707OmEPA==
-----END CERTIFICATE-----
