Certificate:
    Data:
        Version: 3 (0x2)
        Serial Number: 7 (0x7)
    Signature Algorithm: sha256WithRSAEncryption
        Issuer: C=SE, O=Example, OU=Example Certificate Authority, CN=Example Cluster Authority
        Validity
            Not Before: Dec 12 12:17:41 2024 GMT
            Not After : Jun  4 12:17:41 2030 GMT
        Subject: C=SE, O=Example, OU=Example Cluster, CN=Server 6
        Subject Public Key Info:
            Public Key Algorithm: rsaEncryption
                RSA Public-Key: (2048 bit)
                Modulus:
                    00:c2:80:f9:56:e5:98:df:94:ff:5a:13:49:57:10:
                    79:7e:2a:7c:65:6d:b6:6d:41:f8:61:3c:aa:37:93:
                    5f:0f:0e:c0:21:14:d1:fc:4d:a6:31:e4:37:72:65:
                    37:ef:54:ae:86:8d:f2:0b:4f:aa:90:40:e8:6c:28:
                    88:cd:15:d6:0a:47:7b:1a:ce:c9:3a:a5:97:72:d6:
                    ce:ec:cd:34:78:9a:c7:94:9a:aa:b1:5c:a6:04:e1:
                    dd:c5:2c:f9:da:6c:97:d6:ae:26:88:45:59:8b:dc:
                    0a:55:a3:7d:22:0d:a0:49:85:b7:6a:64:1b:2a:5e:
                    96:21:9c:b2:da:88:57:21:b8:7f:4b:4f:89:cb:63:
                    99:b5:b8:4c:e4:c4:ec:93:4d:f7:4b:1a:ff:82:2b:
                    7b:87:6e:6f:19:19:25:c7:2b:bf:67:21:a8:b9:ba:
                    e4:ef:87:ad:49:1d:ad:89:7d:59:85:b3:6c:f0:eb:
                    2a:1a:3e:f0:71:03:6a:7e:9a:68:db:d6:3f:1e:b7:
                    3f:50:ff:c5:c6:13:35:b4:21:9b:bf:82:07:0c:ff:
                    94:ee:f6:94:7b:7e:c7:07:cd:b9:5f:95:d5:ce:58:
                    f1:76:62:da:af:75:30:e7:dd:70:01:49:58:71:65:
                    10:58:f8:c9:2d:0f:2e:0c:eb:13:41:f9:58:5c:db:
                    fe:5d
                Exponent: 65537 (0x10001)
        X509v3 extensions:
            X509v3 Key Usage: critical
                Digital Signature, Key Encipherment
            X509v3 Basic Constraints: 
                CA:FALSE
            X509v3 Extended Key Usage: 
                TLS Web Server Authentication, TLS Web Client Authentication
            X509v3 Subject Key Identifier: 
                35:DC:73:73:B1:B8:1E:67:52:4B:B3:ED:8A:21:CA:C4:25:F8:8D:18
            X509v3 Authority Key Identifier: 
                keyid:BD:98:C2:19:20:46:2C:E4:FE:EB:5F:7D:43:39:E3:EB:C7:72:75:D8

            Authority Information Access: 
                CA Issuers - URI:http://example.com/ca/cluster.cer

            X509v3 CRL Distribution Points: 

                Full Name:
                  URI:http://example.com/ca/cluster.crl

            X509v3 Subject Alternative Name: 
                DNS:localhost, IP Address:127.0.0.1
    Signature Algorithm: sha256WithRSAEncryption
         74:60:c2:2e:f4:c6:a6:b7:3a:6b:84:f4:32:28:4e:51:f9:4b:
         9f:1b:31:34:a7:03:01:fc:ac:c3:85:b5:f0:e1:f0:41:77:b0:
         b5:4c:4a:bb:74:fc:a4:f0:77:fa:ef:33:ae:aa:c3:25:90:30:
         ab:85:07:a8:42:42:03:c8:25:e2:40:c2:13:fc:e7:23:e2:6a:
         cb:5b:83:25:69:68:a8:dc:26:5b:76:47:f8:5b:cf:34:a5:44:
         72:93:9d:31:fd:0a:df:31:5c:93:23:7b:16:6e:d0:8a:6f:2c:
         fa:59:d7:8a:84:24:22:ae:2b:16:94:80:06:62:53:5d:c8:7d:
         5c:03:2c:51:81:cc:ce:80:16:e7:6a:a2:26:8b:fa:1c:eb:7e:
         f7:3b:78:17:45:42:5a:b9:44:11:08:ce:4a:88:ee:a1:bc:3e:
         50:0a:7e:e2:ba:a3:c5:d7:91:2e:c0:8f:5d:42:bd:00:fa:73:
         e7:51:ed:a8:38:a9:ef:c0:b9:dd:86:4e:bd:32:54:40:75:94:
         3c:3b:58:94:d9:de:cc:91:85:4c:27:47:8e:af:9d:a6:bd:f2:
         9d:60:ea:59:f4:94:60:a9:17:fa:5c:29:86:ee:c2:db:c9:42:
         39:66:c9:54:c1:d6:e3:f4:75:fa:f1:8a:91:62:91:93:00:45:
         14:eb:0d:49
-----BEGIN CERTIFICATE-----
MIIEQTCCAymgAwIBAgIBBzANBgkqhkiG9w0BAQsFADBrMQswCQYDVQQGEwJTRTEQ
MA4GA1UECgwHRXhhbXBsZTEmMCQGA1UECwwdRXhhbXBsZSBDZXJ0aWZpY2F0ZSBB
dXRob3JpdHkxIjAgBgNVBAMMGUV4YW1wbGUgQ2x1c3RlciBBdXRob3JpdHkwHhcN
MjQxMjEyMTIxNzQxWhcNMzAwNjA0MTIxNzQxWjBMMQswCQYDVQQGEwJTRTEQMA4G
A1UECgwHRXhhbXBsZTEYMBYGA1UECwwPRXhhbXBsZSBDbHVzdGVyMREwDwYDVQQD
DAhTZXJ2ZXIgNjCCASIwDQYJKoZIhvcNAQEBBQADggEPADCCAQoCggEBAMKA+Vbl
mN+U/1oTSVcQeX4qfGVttm1B+GE8qjeTXw8OwCEU0fxNpjHkN3JlN+9UroaN8gtP
qpBA6GwoiM0V1gpHexrOyTqll3LWzuzNNHiax5SaqrFcpgTh3cUs+dpsl9auJohF
WYvcClWjfSINoEmFt2pkGypeliGcstqIVyG4f0tPictjmbW4TOTE7JNN90sa/4Ir
e4dubxkZJccrv2chqLm65O+HrUkdrYl9WYWzbPDrKho+8HEDan6aaNvWPx63P1D/
xcYTNbQhm7+CBwz/lO72lHt+xwfNuV+V1c5Y8XZi2q91MOfdcAFJWHFlEFj4yS0P
LgzrE0H5WFzb/l0CAwEAAaOCAQ0wggEJMA4GA1UdDwEB/wQEAwIFoDAJBgNVHRME
AjAAMB0GA1UdJQQWMBQGCCsGAQUFBwMBBggrBgEFBQcDAjAdBgNVHQ4EFgQUNdxz
c7G4HmdSS7PtiiHKxCX4jRgwHwYDVR0jBBgwFoAUvZjCGSBGLOT+6199Qznj68dy
ddgwPQYIKwYBBQUHAQEEMTAvMC0GCCsGAQUFBzAChiFodHRwOi8vZXhhbXBsZS5j
b20vY2EvY2x1c3Rlci5jZXIwMgYDVR0fBCswKTAnoCWgI4YhaHR0cDovL2V4YW1w
bGUuY29tL2NhL2NsdXN0ZXIuY3JsMBoGA1UdEQQTMBGCCWxvY2FsaG9zdIcEfwAA
ATANBgkqhkiG9w0BAQsFAAOCAQEAdGDCLvTGprc6a4T0MihOUflLnxsxNKcDAfys
w4W18OHwQXewtUxKu3T8pPB3+u8zrqrDJZAwq4UHqEJCA8gl4kDCE/znI+Jqy1uD
JWloqNwmW3ZH+FvPNKVEcpOdMf0K3zFckyN7Fm7Qim8s+lnXioQkIq4rFpSABmJT
Xch9XAMsUYHMzoAW52qiJov6HOt+9zt4F0VCWrlEEQjOSojuobw+UAp+4rqjxdeR
LsCPXUK9APpz51HtqDip78C53YZOvTJUQHWUPDtYlNnezJGFTCdHjq+dpr3ynWDq
WfSUYKkX+lwphu7C28lCOWbJVMHW4/R1+vGKkWKRkwBFFOsNSQ==
-----END CERTIFICATE-----
