Certificate:
    Data:
        Version: 3 (0x2)
        Serial Number: 11 (0xb)
    Signature Algorithm: sha256WithRSAEncryption
        Issuer: C=SE, O=Example, OU=Example Certificate Authority, CN=Example Cluster Authority
        Validity
            Not Before: Dec 12 12:17:41 2024 GMT
            Not After : Jun  4 12:17:41 2030 GMT
        Subject: C=SE, O=Example, OU=Example Cluster, CN=Server 10
        Subject Public Key Info:
            Public Key Algorithm: rsaEncryption
                RSA Public-Key: (2048 bit)
                Modulus:
                    00:bc:28:64:71:b1:11:80:87:29:d3:a2:16:96:61:
                    5b:1f:4c:78:c1:ec:d6:c9:df:a9:fc:0d:e2:34:ea:
                    0f:28:14:79:b1:86:4d:c0:41:35:be:16:11:77:8c:
                    15:ae:80:b6:f9:76:32:ac:29:95:1c:62:8d:ed:98:
                    95:ee:e1:b3:82:22:2f:42:d1:01:d3:3c:b8:6d:38:
                    70:59:08:37:91:b7:53:0d:e1:5b:26:78:26:50:1b:
                    3d:ca:7d:9b:86:54:44:a4:ab:56:8a:b6:20:61:6a:
                    ab:44:c4:5b:a8:ce:6d:3a:b5:39:90:ab:23:dd:8e:
                    d5:1e:44:25:03:49:00:ef:e1:54:16:33:82:cb:fd:
                    b2:b2:8f:80:04:e0:b2:28:f1:87:57:64:8d:30:18:
                    2c:8b:16:b7:e6:7b:6f:57:35:40:84:d3:f3:45:5f:
                    14:c4:33:bd:c0:ea:b7:8a:49:39:1a:46:82:7f:02:
                    eb:b6:52:70:ce:27:c5:a2:f8:3d:a4:dc:57:06:37:
                    f5:5b:eb:89:b1:79:68:7e:45:5e:e8:6c:cf:68:d3:
                    bd:da:76:d8:d2:69:da:75:cb:92:b6:7d:8c:a7:bc:
                    1b:1a:43:1d:1f:5b:d5:57:cc:df:c7:1d:b8:1c:13:
                    de:71:13:01:78:66:18:dc:f2:7d:44:8e:e6:4f:e8:
                    da:1d
                Exponent: 65537 (0x10001)
        X509v3 extensions:
            X509v3 Key Usage: critical
                Digital Signature, Key Encipherment
            X509v3 Basic Constraints: 
                CA:FALSE
            X509v3 Extended Key Usage: 
                TLS Web Server Authentication, TLS Web Client Authentication
            X509v3 Subject Key Identifier: 
                6D:25:40:61:4A:8E:BB:33:29:B9:83:5D:C8:87:F9:D0:AD:0C:8B:7E
            X509v3 Authority Key Identifier: 
                keyid:BD:98:C2:19:20:46:2C:E4:FE:EB:5F:7D:43:39:E3:EB:C7:72:75:D8

            Authority Information Access: 
                CA Issuers - URI:http://example.com/ca/cluster.cer

            X509v3 CRL Distribution Points: 

                Full Name:
                  URI:http://example.com/ca/cluster.crl

            X509v3 Subject Alternative Name: 
                DNS:localhost, IP Address:127.0.0.1
    Signature Algorithm: sha256WithRSAEncryption
         71:00:20:96:ae:5e:3d:f5:60:e0:7c:71:31:2f:37:66:b2:33:
         22:e2:cb:19:27:e4:a4:e1:54:48:0b:57:e5:cf:46:68:9d:86:
         e2:bf:84:53:02:b1:c3:20:56:bc:5b:ad:91:cd:ae:20:c9:9c:
         45:dc:5f:03:5a:16:55:0b:06:6a:a6:df:f6:05:07:05:26:d2:
         ad:50:7b:6d:5c:3a:37:b4:00:71:19:4d:a3:63:64:44:f4:57:
         64:b5:62:8d:0f:cc:4c:e7:7f:67:a4:7d:dd:c8:77:7f:b9:fb:
         25:1b:b6:1b:b7:c0:25:cd:5a:8a:6d:91:01:0e:14:9e:04:51:
         f6:b8:cf:52:c0:f3:d7:df:99:88:4a:4e:23:75:13:f1:f3:44:
         4c:24:4b:61:47:4d:47:63:3f:42:a4:f0:cc:98:7b:e5:08:f5:
         94:92:5d:a0:00:12:14:0e:b1:6a:dc:88:2a:99:f6:78:35:64:
         a6:0a:74:8d:c6:0a:44:ff:77:94:d0:93:ad:4e:df:b6:0a:6e:
         c4:07:ff:83:34:af:f1:c6:ca:6a:f3:73:95:62:7a:72:78:57:
         8f:19:68:82:aa:c3:53:07:e3:b6:38:d1:44:29:67:b8:a0:f7:
         28:55:fc:dd:c4:fb:7f:59:ea:6a:e1:32:e5:b7:13:af:dc:fc:
         76:6f:7c:0a
-----BEGIN CERTIFICATE-----
MIIEQjCCAyqgAwIBAgIBCzANBgkqhkiG9w0BAQsFADBrMQswCQYDVQQGEwJTRTEQ
MA4GA1UECgwHRXhhbXBsZTEmMCQGA1UECwwdRXhhbXBsZSBDZXJ0aWZpY2F0ZSBB
dXRob3JpdHkxIjAgBgNVBAMMGUV4YW1wbGUgQ2x1c3RlciBBdXRob3JpdHkwHhcN
MjQxMjEyMTIxNzQxWhcNMzAwNjA0MTIxNzQxWjBNMQswCQYDVQQGEwJTRTEQMA4G
A1UECgwHRXhhbXBsZTEYMBYGA1UECwwPRXhhbXBsZSBDbHVzdGVyMRIwEAYDVQQD
DAlTZXJ2ZXIgMTAwggEiMA0GCSqGSIb3DQEBAQUAA4IBDwAwggEKAoIBAQC8KGRx
sRGAhynTohaWYVsfTHjB7NbJ36n8DeI06g8oFHmxhk3AQTW+FhF3jBWugLb5djKs
KZUcYo3tmJXu4bOCIi9C0QHTPLhtOHBZCDeRt1MN4VsmeCZQGz3KfZuGVESkq1aK
tiBhaqtExFuozm06tTmQqyPdjtUeRCUDSQDv4VQWM4LL/bKyj4AE4LIo8YdXZI0w
GCyLFrfme29XNUCE0/NFXxTEM73A6reKSTkaRoJ/Auu2UnDOJ8Wi+D2k3FcGN/Vb
64mxeWh+RV7obM9o073adtjSadp1y5K2fYynvBsaQx0fW9VXzN/HHbgcE95xEwF4
Zhjc8n1EjuZP6NodAgMBAAGjggENMIIBCTAOBgNVHQ8BAf8EBAMCBaAwCQYDVR0T
BAIwADAdBgNVHSUEFjAUBggrBgEFBQcDAQYIKwYBBQUHAwIwHQYDVR0OBBYEFG0l
QGFKjrszKbmDXciH+dCtDIt+MB8GA1UdIwQYMBaAFL2YwhkgRizk/utffUM54+vH
cnXYMD0GCCsGAQUFBwEBBDEwLzAtBggrBgEFBQcwAoYhaHR0cDovL2V4YW1wbGUu
Y29tL2NhL2NsdXN0ZXIuY2VyMDIGA1UdHwQrMCkwJ6AloCOGIWh0dHA6Ly9leGFt
cGxlLmNvbS9jYS9jbHVzdGVyLmNybDAaBgNVHREEEzARgglsb2NhbGhvc3SHBH8A
AAEwDQYJKoZIhvcNAQELBQADggEBAHEAIJauXj31YOB8cTEvN2ayMyLiyxkn5KTh
VEgLV+XPRmidhuK/hFMCscMgVrxbrZHNriDJnEXcXwNaFlULBmqm3/YFBwUm0q1Q
e21cOje0AHEZTaNjZET0V2S1Yo0PzEznf2ekfd3Id3+5+yUbthu3wCXNWoptkQEO
FJ4EUfa4z1LA89ffmYhKTiN1E/HzREwkS2FHTUdjP0Kk8MyYe+UI9ZSSXaAAEhQO
sWrciCqZ9ng1ZKYKdI3GCkT/d5TQk61O37YKbsQH/4M0r/HGymrzc5VienJ4V48Z
aIKqw1MH47Y40UQpZ7ig9yhV/N3E+39Z6mrhMuW3E6/c/HZvfAo=
-----END CERTIFICATE-----
