Certificate:
    Data:
        Version: 3 (0x2)
        Serial Number: 1 (0x1)
    Signature Algorithm: sha256WithRSAEncryption
        Issuer: C=SE, O=Example, OU=Example Certificate Authority, CN=Example Root CA
        Validity
            Not Before: Dec 12 12:17:40 2024 GMT
            Not After : Nov 18 12:17:40 2124 GMT
        Subject: C=SE, O=Example, OU=Example Certificate Authority, CN=Example Root CA
        Subject Public Key Info:
            Public Key Algorithm: rsaEncryption
                RSA Public-Key: (2048 bit)
                Modulus:
                    00:a0:83:9a:2d:8a:fb:bc:32:50:d7:eb:1e:b3:9f:
                    97:a6:ae:cd:05:81:d2:44:08:49:46:b7:4e:69:9b:
                    02:7f:4f:92:77:97:24:69:20:64:9d:2c:b0:f1:1e:
                    65:5f:35:31:b9:9d:f4:ff:d3:ab:fd:43:82:ad:d3:
                    75:d6:67:ec:b2:8b:3a:7b:5b:c8:5f:84:3e:de:d7:
                    f3:07:bc:b3:09:5a:dd:aa:3a:c2:c4:cd:87:f8:50:
                    ed:f0:b0:7a:e9:22:17:db:e9:79:ec:02:6a:41:a6:
                    5a:f2:39:f2:b0:ee:ec:da:ce:29:05:fd:01:3b:85:
                    b3:e9:07:8c:08:a3:5b:e9:e8:d5:56:ba:73:6c:75:
                    3f:c3:c1:c6:e0:c6:dd:74:ab:13:05:aa:ca:9d:16:
                    f5:5c:e1:4d:2f:97:d6:f9:ce:c0:9d:60:ce:90:78:
                    84:49:6c:1d:09:d5:2e:19:b8:28:b4:08:22:0e:64:
                    27:14:ff:b7:e5:bc:ab:aa:f3:6c:5b:ba:35:ce:54:
                    b1:56:bf:65:e0:b3:48:19:bd:b0:1f:f6:6b:79:40:
                    a9:a6:6e:00:61:a3:77:7e:af:3b:10:91:ea:8f:7f:
                    a5:4a:1d:6c:8d:0f:86:a5:ed:a8:66:a4:41:41:a4:
                    27:e5:92:d8:d8:17:bd:90:bb:6c:f6:87:db:00:f9:
                    15:f3
                Exponent: 65537 (0x10001)
        X509v3 extensions:
            X509v3 Key Usage: critical
                Certificate Sign, CRL Sign
            X509v3 Basic Constraints: critical
                CA:TRUE
            X509v3 Subject Key Identifier: 
                76:06:0A:36:A0:A3:FB:A2:7A:EE:B6:6A:D4:2C:AB:E9:4C:B4:10:0E
            X509v3 Authority Key Identifier: 
                keyid:76:06:0A:36:A0:A3:FB:A2:7A:EE:B6:6A:D4:2C:AB:E9:4C:B4:10:0E

    Signature Algorithm: sha256WithRSAEncryption
         79:95:6d:d8:79:65:2b:23:8a:ba:b3:69:e0:0b:0d:69:85:9a:
         18:bd:a0:1c:41:9c:ec:c1:ed:96:1a:3d:2c:f0:2a:28:01:69:
         3d:ad:18:1a:8a:bc:37:4f:78:5d:92:ca:db:f4:19:be:da:35:
         8c:2c:68:47:de:fe:ca:43:c7:9b:94:20:e3:71:be:b8:a9:97:
         35:31:7b:1c:78:1e:17:20:b2:5d:b3:7e:4f:11:c3:19:0e:4c:
         48:cc:0e:f4:99:fa:ae:a5:7c:4e:03:25:3b:c8:f4:8e:e2:13:
         8d:71:f1:ed:5d:e2:dd:2e:3d:d0:02:df:ec:78:2b:67:8b:84:
         73:c6:ce:38:71:76:b4:6a:3a:7b:c4:c7:c3:f3:24:57:01:90:
         a5:f3:a2:96:bb:5a:c0:8a:04:bf:0d:9c:1b:a4:67:a4:47:24:
         2b:46:38:2c:77:f2:97:b3:67:92:cd:5b:e3:af:87:d7:32:62:
         04:09:56:87:30:c9:09:b5:52:31:47:2f:55:0b:32:e1:3d:22:
         cb:cd:d2:f3:b0:96:51:8b:6e:30:3a:9d:5b:04:72:d3:86:22:
         b9:bc:f6:4a:76:29:09:1a:e7:c6:aa:2c:04:a2:41:b0:ef:41:
         2e:bb:e2:58:23:73:5c:13:5c:da:86:ca:20:cf:8b:3b:91:cc:
         c1:63:dc:c3
-----BEGIN CERTIFICATE-----
MIIDojCCAoqgAwIBAgIBATANBgkqhkiG9w0BAQsFADBhMQswCQYDVQQGEwJTRTEQ
MA4GA1UECgwHRXhhbXBsZTEmMCQGA1UECwwdRXhhbXBsZSBDZXJ0aWZpY2F0ZSBB
dXRob3JpdHkxGDAWBgNVBAMMD0V4YW1wbGUgUm9vdCBDQTAgFw0yNDEyMTIxMjE3
NDBaGA8yMTI0MTExODEyMTc0MFowYTELMAkGA1UEBhMCU0UxEDAOBgNVBAoMB0V4
YW1wbGUxJjAkBgNVBAsMHUV4YW1wbGUgQ2VydGlmaWNhdGUgQXV0aG9yaXR5MRgw
FgYDVQQDDA9FeGFtcGxlIFJvb3QgQ0EwggEiMA0GCSqGSIb3DQEBAQUAA4IBDwAw
ggEKAoIBAQCgg5otivu8MlDX6x6zn5emrs0FgdJECElGt05pmwJ/T5J3lyRpIGSd
LLDxHmVfNTG5nfT/06v9Q4Kt03XWZ+yyizp7W8hfhD7e1/MHvLMJWt2qOsLEzYf4
UO3wsHrpIhfb6XnsAmpBplryOfKw7uzazikF/QE7hbPpB4wIo1vp6NVWunNsdT/D
wcbgxt10qxMFqsqdFvVc4U0vl9b5zsCdYM6QeIRJbB0J1S4ZuCi0CCIOZCcU/7fl
vKuq82xbujXOVLFWv2Xgs0gZvbAf9mt5QKmmbgBho3d+rzsQkeqPf6VKHWyND4al
7ahmpEFBpCflktjYF72Qu2z2h9sA+RXzAgMBAAGjYzBhMA4GA1UdDwEB/wQEAwIB
BjAPBgNVHRMBAf8EBTADAQH/MB0GA1UdDgQWBBR2Bgo2oKP7onrutmrULKvpTLQQ
DjAfBgNVHSMEGDAWgBR2Bgo2oKP7onrutmrULKvpTLQQDjANBgkqhkiG9w0BAQsF
AAOCAQEAeZVt2HllKyOKurNp4AsNaYWaGL2gHEGc7MHtlho9LPAqKAFpPa0YGoq8
N094XZLK2/QZvto1jCxoR97+ykPHm5Qg43G+uKmXNTF7HHgeFyCyXbN+TxHDGQ5M
SMwO9Jn6rqV8TgMlO8j0juITjXHx7V3i3S490ALf7HgrZ4uEc8bOOHF2tGo6e8TH
w/MkVwGQpfOilrtawIoEvw2cG6RnpEckK0Y4LHfyl7Nnks1b46+H1zJiBAlWhzDJ
CbVSMUcvVQsy4T0iy83S87CWUYtuMDqdWwRy04Yiubz2SnYpCRrnxqosBKJBsO9B
LrviWCNzXBNc2obKIM+LO5HMwWPcww==
-----END CERTIFICATE-----
