Certificate:
    Data:
        Version: 3 (0x2)
        Serial Number: 10 (0xa)
    Signature Algorithm: sha256WithRSAEncryption
        Issuer: C=SE, O=Example, OU=Example Certificate Authority, CN=Example Cluster Authority
        Validity
            Not Before: Dec 12 12:17:41 2024 GMT
            Not After : Jun  4 12:17:41 2030 GMT
        Subject: C=SE, O=Example, OU=Example Cluster, CN=Server 9
        Subject Public Key Info:
            Public Key Algorithm: rsaEncryption
                RSA Public-Key: (2048 bit)
                Modulus:
                    00:d7:f2:92:e8:e6:30:e3:a9:38:e6:96:b6:85:cd:
                    cd:96:7e:ec:53:bb:bc:46:aa:a1:3a:6d:3b:5a:9a:
                    db:5e:5e:8c:32:87:66:eb:89:c0:29:f2:de:22:b2:
                    5a:97:b8:a7:c4:f2:f6:d2:e9:ea:e7:d0:4c:96:f9:
                    a2:85:c3:57:ca:d1:99:69:d1:54:22:6b:5f:64:d0:
                    3c:ef:61:a1:35:25:74:8d:ad:17:e3:0f:de:19:2b:
                    44:ff:08:61:2e:70:31:30:2a:68:c1:41:13:2c:80:
                    7e:d7:2b:4b:e7:4f:a8:bc:8f:5c:87:aa:86:9c:53:
                    a1:07:85:0e:56:12:24:4a:cc:bf:2c:c5:62:9d:c7:
                    bf:18:99:e2:b4:1e:df:f3:0b:88:a9:5e:72:89:19:
                    6c:35:3f:d4:88:c4:ae:d2:b1:c5:86:fb:f2:da:04:
                    e9:85:50:d9:71:3f:de:8c:49:83:18:47:1e:1c:2d:
                    d3:f6:91:20:0b:55:12:0f:c9:07:84:3e:14:b3:28:
                    30:b7:b6:01:80:16:30:41:c6:50:7e:e8:19:07:a9:
                    6b:a7:89:6c:12:27:e1:05:df:8c:c4:3d:bb:c6:5e:
                    2e:18:f3:cc:77:52:c2:40:6c:5b:0e:ce:ae:e3:83:
                    e0:fa:05:46:53:b2:e0:ad:0e:da:ca:9b:ce:c0:0f:
                    ac:6f
                Exponent: 65537 (0x10001)
        X509v3 extensions:
            X509v3 Key Usage: critical
                Digital Signature, Key Encipherment
            X509v3 Basic Constraints: 
                CA:FALSE
            X509v3 Extended Key Usage: 
                TLS Web Server Authentication, TLS Web Client Authentication
            X509v3 Subject Key Identifier: 
                95:D0:2C:0D:14:97:BC:1B:6A:4F:8E:CA:39:1E:47:E8:32:F5:22:F3
            X509v3 Authority Key Identifier: 
                keyid:BD:98:C2:19:20:46:2C:E4:FE:EB:5F:7D:43:39:E3:EB:C7:72:75:D8

            Authority Information Access: 
                CA Issuers - URI:http://example.com/ca/cluster.cer

            X509v3 CRL Distribution Points: 

                Full Name:
                  URI:http://example.com/ca/cluster.crl

            X509v3 Subject Alternative Name: 
                DNS:localhost, IP Address:127.0.0.1
    Signature Algorithm: sha256WithRSAEncryption
         88:7a:87:7b:29:78:2d:32:47:0b:0e:43:cf:2e:a2:51:96:98:
         e4:ed:ff:99:97:af:c8:46:42:af:60:03:be:5e:4f:80:27:78:
         e1:3a:ec:e7:5c:aa:b3:67:af:4c:bc:4a:49:41:82:95:13:ea:
         36:0f:86:d5:9a:26:8e:fb:43:31:41:fe:fd:c0:98:86:77:98:
         01:ff:5d:df:2f:50:cd:89:37:11:d7:7a:ea:42:b1:79:4d:bf:
         a3:72:e9:ea:00:16:8a:7d:f5:11:48:79:4e:f9:30:20:40:6b:
         2e:16:ca:5f:9f:2e:24:a0:b2:86:fa:92:f2:1c:ba:20:fa:e8:
         fb:98:25:93:30:27:19:aa:6b:b2:68:4e:0a:7f:e9:db:52:86:
         b4:1c:77:22:c1:59:ea:4e:1d:c1:38:5b:5a:10:c1:b4:25:98:
         10:46:f8:97:93:0d:1f:b2:c2:27:18:8a:03:75:24:3f:43:cd:
         7b:15:a8:78:ec:94:4e:2b:b3:5d:ad:86:7d:5d:d3:d0:7f:af:
         74:23:e5:b9:cc:a3:47:6d:51:d6:55:e4:ff:e2:9c:83:bb:05:
         00:c8:3e:8d:ad:67:a3:44:3c:00:6a:1a:6f:9d:06:9a:ad:ba:
         e4:33:e6:43:70:0a:f2:1a:d5:be:e5:c8:0f:1c:59:e7:7e:4e:
         5d:21:b7:1e
-----BEGIN CERTIFICATE-----
MIIEQTCCAymgAwIBAgIBCjANBgkqhkiG9w0BAQsFADBrMQswCQYDVQQGEwJTRTEQ
MA4GA1UECgwHRXhhbXBsZTEmMCQGA1UECwwdRXhhbXBsZSBDZXJ0aWZpY2F0ZSBB
dXRob3JpdHkxIjAgBgNVBAMMGUV4YW1wbGUgQ2x1c3RlciBBdXRob3JpdHkwHhcN
MjQxMjEyMTIxNzQxWhcNMzAwNjA0MTIxNzQxWjBMMQswCQYDVQQGEwJTRTEQMA4G
A1UECgwHRXhhbXBsZTEYMBYGA1UECwwPRXhhbXBsZSBDbHVzdGVyMREwDwYDVQQD
DAhTZXJ2ZXIgOTCCASIwDQYJKoZIhvcNAQEBBQADggEPADCCAQoCggEBANfykujm
MOOpOOaWtoXNzZZ+7FO7vEaqoTptO1qa215ejDKHZuuJwCny3iKyWpe4p8Ty9tLp
6ufQTJb5ooXDV8rRmWnRVCJrX2TQPO9hoTUldI2tF+MP3hkrRP8IYS5wMTAqaMFB
EyyAftcrS+dPqLyPXIeqhpxToQeFDlYSJErMvyzFYp3HvxiZ4rQe3/MLiKlecokZ
bDU/1IjErtKxxYb78toE6YVQ2XE/3oxJgxhHHhwt0/aRIAtVEg/JB4Q+FLMoMLe2
AYAWMEHGUH7oGQepa6eJbBIn4QXfjMQ9u8ZeLhjzzHdSwkBsWw7OruOD4PoFRlOy
4K0O2sqbzsAPrG8CAwEAAaOCAQ0wggEJMA4GA1UdDwEB/wQEAwIFoDAJBgNVHRME
AjAAMB0GA1UdJQQWMBQGCCsGAQUFBwMBBggrBgEFBQcDAjAdBgNVHQ4EFgQUldAs
DRSXvBtqT47KOR5H6DL1IvMwHwYDVR0jBBgwFoAUvZjCGSBGLOT+6199Qznj68dy
ddgwPQYIKwYBBQUHAQEEMTAvMC0GCCsGAQUFBzAChiFodHRwOi8vZXhhbXBsZS5j
b20vY2EvY2x1c3Rlci5jZXIwMgYDVR0fBCswKTAnoCWgI4YhaHR0cDovL2V4YW1w
bGUuY29tL2NhL2NsdXN0ZXIuY3JsMBoGA1UdEQQTMBGCCWxvY2FsaG9zdIcEfwAA
ATANBgkqhkiG9w0BAQsFAAOCAQEAiHqHeyl4LTJHCw5Dzy6iUZaY5O3/mZevyEZC
r2ADvl5PgCd44Trs51yqs2evTLxKSUGClRPqNg+G1ZomjvtDMUH+/cCYhneYAf9d
3y9QzYk3Edd66kKxeU2/o3Lp6gAWin31EUh5TvkwIEBrLhbKX58uJKCyhvqS8hy6
IPro+5glkzAnGaprsmhOCn/p21KGtBx3IsFZ6k4dwThbWhDBtCWYEEb4l5MNH7LC
JxiKA3UkP0PNexWoeOyUTiuzXa2GfV3T0H+vdCPlucyjR21R1lXk/+Kcg7sFAMg+
ja1no0Q8AGoab50Gmq265DPmQ3AK8hrVvuXIDxxZ535OXSG3Hg==
-----END CERTIFICATE-----
